; Function Attrs: mustprogress uwtable
define range(i32 -3, 1) i32 @casadi_c_work_id(i32 noundef %0, ptr noundef writeonly captures(none) %1, ptr noundef writeonly captures(none) %2, ptr noundef writeonly captures(none) %3, ptr noundef writeonly captures(none) %4) local_unnamed_addr #5 personality ptr @__gxx_personality_v0 {
  %6 = tail call noundef i32 @_Z11sanitize_idi(i32 noundef %0)
  %.not = icmp eq i32 %6, 0
  br i1 %.not, label %7, label %72

7:                                                ; preds = %5
  %8 = sext i32 %0 to i64
  %9 = load ptr, ptr getelementptr inbounds nuw (i8, ptr @_ZL25casadi_c_loaded_functions, i64 8), align 8, !tbaa !9
  %10 = load ptr, ptr @_ZL25casadi_c_loaded_functions, align 8, !tbaa !3
  %11 = ptrtoint ptr %9 to i64
  %12 = ptrtoint ptr %10 to i64
  %13 = sub i64 %11, %12
  %14 = ashr exact i64 %13, 3
  %.not.i.i = icmp ugt i64 %14, %8
  br i1 %.not.i.i, label %15, label %.invoke

15:                                               ; preds = %7
  %16 = getelementptr inbounds nuw %"class.casadi::Function", ptr %10, i64 %8
  %17 = invoke noundef i64 @_ZNK6casadi8Function6sz_argEv(ptr noundef nonnull align 8 dereferenceable(8) %16)
          to label %18 unwind label %50

18:                                               ; preds = %15
  store i64 %17, ptr %1, align 8, !tbaa !82
  %19 = load ptr, ptr getelementptr inbounds nuw (i8, ptr @_ZL25casadi_c_loaded_functions, i64 8), align 8, !tbaa !9
  %20 = load ptr, ptr @_ZL25casadi_c_loaded_functions, align 8, !tbaa !3
  %21 = ptrtoint ptr %19 to i64
  %22 = ptrtoint ptr %20 to i64
  %23 = sub i64 %21, %22
  %24 = ashr exact i64 %23, 3
  %.not.i.i18 = icmp ugt i64 %24, %8
  br i1 %.not.i.i18, label %25, label %.invoke

25:                                               ; preds = %18
  %26 = getelementptr inbounds nuw %"class.casadi::Function", ptr %20, i64 %8
  %27 = invoke noundef i64 @_ZNK6casadi8Function6sz_resEv(ptr noundef nonnull align 8 dereferenceable(8) %26)
          to label %28 unwind label %50

28:                                               ; preds = %25
  store i64 %27, ptr %2, align 8, !tbaa !82
  %29 = load ptr, ptr getelementptr inbounds nuw (i8, ptr @_ZL25casadi_c_loaded_functions, i64 8), align 8, !tbaa !9
  %30 = load ptr, ptr @_ZL25casadi_c_loaded_functions, align 8, !tbaa !3
  %31 = ptrtoint ptr %29 to i64
  %32 = ptrtoint ptr %30 to i64
  %33 = sub i64 %31, %32
  %34 = ashr exact i64 %33, 3
  %.not.i.i21 = icmp ugt i64 %34, %8
  br i1 %.not.i.i21, label %35, label %.invoke

35:                                               ; preds = %28
  %36 = getelementptr inbounds nuw %"class.casadi::Function", ptr %30, i64 %8
  %37 = invoke noundef i64 @_ZNK6casadi8Function5sz_iwEv(ptr noundef nonnull align 8 dereferenceable(8) %36)
          to label %38 unwind label %50

38:                                               ; preds = %35
  store i64 %37, ptr %3, align 8, !tbaa !82
  %39 = load ptr, ptr getelementptr inbounds nuw (i8, ptr @_ZL25casadi_c_loaded_functions, i64 8), align 8, !tbaa !9
  %40 = load ptr, ptr @_ZL25casadi_c_loaded_functions, align 8, !tbaa !3
  %41 = ptrtoint ptr %39 to i64
  %42 = ptrtoint ptr %40 to i64
  %43 = sub i64 %41, %42
  %44 = ashr exact i64 %43, 3
  %.not.i.i24 = icmp ugt i64 %44, %8
  br i1 %.not.i.i24, label %46, label %.invoke

.invoke:                                          ; preds = %38, %28, %18, %7
  %45 = phi i64 [ %14, %7 ], [ %24, %18 ], [ %34, %28 ], [ %44, %38 ]
  invoke void (ptr, ...) @_ZSt24__throw_out_of_range_fmtPKcz(ptr noundef nonnull @.str.20, i64 noundef %8, i64 noundef %45) #25
          to label %.cont unwind label %50

.cont:                                            ; preds = %.invoke
  unreachable

46:                                               ; preds = %38
  %47 = getelementptr inbounds nuw %"class.casadi::Function", ptr %40, i64 %8
  %48 = invoke noundef i64 @_ZNK6casadi8Function4sz_wEv(ptr noundef nonnull align 8 dereferenceable(8) %47)
          to label %49 unwind label %50

49:                                               ; preds = %46
  store i64 %48, ptr %4, align 8, !tbaa !82
  br label %72

50:                                               ; preds = %.invoke, %46, %35, %25, %15
  %51 = landingpad { ptr, i32 }
          catch ptr @_ZTISt9exception
          catch ptr null
  %52 = extractvalue { ptr, i32 } %51, 0
  %53 = extractvalue { ptr, i32 } %51, 1
  %54 = tail call i32 @llvm.eh.typeid.for.p0(ptr nonnull @_ZTISt9exception) #23
  %55 = icmp eq i32 %53, %54
  %56 = tail call ptr @__cxa_begin_catch(ptr %52) #23
  br i1 %55, label %57, label %65

57:                                               ; preds = %50
  %58 = load ptr, ptr %56, align 8, !tbaa !32
  %59 = getelementptr inbounds nuw i8, ptr %58, i64 16
  %60 = load ptr, ptr %59, align 8
  %61 = tail call noundef ptr %60(ptr noundef nonnull align 8 dereferenceable(8) %56) #23
  %62 = invoke noundef nonnull align 8 dereferenceable(8) ptr @_ZStlsISt11char_traitsIcEERSt13basic_ostreamIcT_ES5_PKc(ptr noundef nonnull align 8 dereferenceable(8) @_ZSt4cerr, ptr noundef %61)
          to label %63 unwind label %70

63:                                               ; preds = %57
  %64 = invoke noundef nonnull align 8 dereferenceable(8) ptr @_ZSt4endlIcSt11char_traitsIcEERSt13basic_ostreamIT_T0_ES6_(ptr noundef nonnull align 8 dereferenceable(8) %62)
          to label %_ZNSolsEPFRSoS_E.exit unwind label %70

_ZNSolsEPFRSoS_E.exit:                            ; preds = %63
  tail call void @__cxa_end_catch()
  br label %72

65:                                               ; preds = %50
  %66 = invoke noundef nonnull align 8 dereferenceable(8) ptr @_ZSt16__ostream_insertIcSt11char_traitsIcEERSt13basic_ostreamIT_T0_ES6_PKS3_l(ptr noundef nonnull align 8 dereferenceable(8) @_ZSt4cerr, ptr noundef nonnull @.str.8, i64 noundef 18)
          to label %_ZStlsISt11char_traitsIcEERSt13basic_ostreamIcT_ES5_PKc.exit unwind label %68

_ZStlsISt11char_traitsIcEERSt13basic_ostreamIcT_ES5_PKc.exit: ; preds = %65
  %67 = invoke noundef nonnull align 8 dereferenceable(8) ptr @_ZSt4endlIcSt11char_traitsIcEERSt13basic_ostreamIT_T0_ES6_(ptr noundef nonnull align 8 dereferenceable(8) @_ZSt4cerr)
          to label %_ZNSolsEPFRSoS_E.exit30 unwind label %68

_ZNSolsEPFRSoS_E.exit30:                          ; preds = %_ZStlsISt11char_traitsIcEERSt13basic_ostreamIcT_ES5_PKc.exit
  tail call void @__cxa_end_catch()
  br label %72

68:                                               ; preds = %_ZStlsISt11char_traitsIcEERSt13basic_ostreamIcT_ES5_PKc.exit, %65
  %69 = landingpad { ptr, i32 }
          cleanup
  invoke void @__cxa_end_catch()
          to label %73 unwind label %74

70:                                               ; preds = %63, %57
  %71 = landingpad { ptr, i32 }
          cleanup
  invoke void @__cxa_end_catch()
          to label %73 unwind label %74

72:                                               ; preds = %5, %49, %_ZNSolsEPFRSoS_E.exit30, %_ZNSolsEPFRSoS_E.exit
  %.0 = phi i32 [ 0, %49 ], [ -2, %_ZNSolsEPFRSoS_E.exit ], [ -3, %_ZNSolsEPFRSoS_E.exit30 ], [ -1, %5 ]
  ret i32 %.0

73:                                               ; preds = %70, %68
  %.pn = phi { ptr, i32 } [ %69, %68 ], [ %71, %70 ]
  resume { ptr, i32 } %.pn

74:                                               ; preds = %70, %68
  %75 = landingpad { ptr, i32 }
          catch ptr null
  %76 = extractvalue { ptr, i32 } %75, 0
  tail call void @__clang_call_terminate(ptr %76) #26
  unreachable
}